ccopy_reg
_reconstructor
p0
(cgoogle.oauth2.credentials
Credentials
p1
c__builtin__
object
p2
Ntp3
Rp4
(dp5
S'_token_uri'
p6
Vhttps://oauth2.googleapis.com/token
p7
sS'_client_secret'
p8
VxUrLQMASJk1pwZs2-AUpgfIp
p9
sS'_id_token'
p10
NsS'token'
p11
Vya29.GluAB7Ha91hyLLsSHflytfUzvlAd5S1xu8_rGxeBnJxj7-q9lqCzBxJ70WRc6eSKRhypD-wJsxnJxLJBIvtMKNt6iKsOSz37rN0z7ZOD8kosFtLiAacTYP_XP3Hs
p12
sS'_refresh_token'
p13
V1/xloNiJJM3kJ_JTXFYT6jYpzWEz47NrU4VLc1-3ChvoE
p14
sS'_scopes'
p15
(lp16
S'https://www.googleapis.com/auth/calendar.readonly'
p17
asS'_client_id'
p18
V178358975521-cb547mj652on33bi7b6j30ar4a8m9h7q.apps.googleusercontent.com
p19
sS'expiry'
p20
cdatetime
datetime
p21
(S'\x07\xe3\t\n\x16*6\x07E\xd2'
p22
tp23
Rp24
sb.